; Function Attrs: mustprogress nounwind uwtable
define dso_local noundef zeroext i1 @_ZN4llvm11MCAsmParser5checkEbRKNS_5TwineE(ptr noundef nonnull align 8 dereferenceable(34) %0, i1 noundef returned zeroext %1, ptr noundef nonnull align 8 dereferenceable(34) %2) local_unnamed_addr #0 align 2 {
  %4 = load ptr, ptr %0, align 8
  %5 = getelementptr inbounds i8, ptr %4, i64 40
  %6 = load ptr, ptr %5, align 8
  %7 = tail call noundef nonnull align 8 dereferenceable(144) ptr %6(ptr noundef nonnull align 8 dereferenceable(34) %0) #13
  %8 = getelementptr inbounds nuw i8, ptr %7, i64 8
  %9 = load ptr, ptr %8, align 8
  %10 = tail call ptr @_ZNK4llvm8AsmToken6getLocEv(ptr noundef nonnull align 8 dereferenceable(40) %9) #13
  br i1 %1, label %11, label %_ZN4llvm11MCAsmParser5checkEbNS_5SMLocERKNS_5TwineE.exit

11:                                               ; preds = %3
  %12 = tail call noundef zeroext i1 @_ZN4llvm11MCAsmParser5ErrorENS_5SMLocERKNS_5TwineENS_7SMRangeE(ptr noundef nonnull align 8 dereferenceable(34) %0, ptr %10, ptr noundef nonnull align 8 dereferenceable(34) %2, ptr null, ptr null)
  br label %_ZN4llvm11MCAsmParser5checkEbNS_5SMLocERKNS_5TwineE.exit

_ZN4llvm11MCAsmParser5checkEbNS_5SMLocERKNS_5TwineE.exit: ; preds = %3, %11
  ret i1 %1
}